; Function Attrs: mustprogress uwtable
define void @_ZNK10open_spiel11tiny_hanabi15TinyHanabiState14ActionToStringB5cxx11Eil(ptr dead_on_unwind noalias writable sret(%"class.std::__cxx11::basic_string") align 8 %0, ptr nocapture nonnull readnone align 8 %1, i32 noundef %2, i64 noundef %3) unnamed_addr #3 align 2 {
  %5 = alloca %"class.absl::debian2::AlphaNum", align 8
  %6 = alloca %"class.absl::debian2::AlphaNum", align 8
  %7 = alloca %"class.absl::debian2::AlphaNum", align 8
  %8 = alloca %"class.absl::debian2::AlphaNum", align 8
  %9 = alloca %"class.absl::debian2::AlphaNum", align 8
  %10 = alloca %"class.absl::debian2::AlphaNum", align 8
  %11 = icmp eq i32 %2, -1
  br i1 %11, label %_ZN4absl7debian28AlphaNumC2EPKc.exit, label %_ZN4absl7debian28AlphaNumC2EPKc.exit4

_ZN4absl7debian28AlphaNumC2EPKc.exit:             ; preds = %4
  store ptr @.str.9, ptr %5, align 8
  %12 = getelementptr inbounds nuw i8, ptr %5, i64 8
  store i64 1, ptr %12, align 8
  %13 = getelementptr inbounds nuw i8, ptr %6, i64 16
  %14 = call noundef ptr @_ZN4absl7debian216numbers_internal15FastIntToBufferElPc(i64 noundef %3, ptr noundef nonnull %13)
  %15 = ptrtoint ptr %14 to i64
  %16 = ptrtoint ptr %13 to i64
  %17 = sub i64 %15, %16
  store ptr %13, ptr %6, align 8
  %18 = icmp sgt i64 %17, -1
  br i1 %18, label %_ZN4absl7debian28AlphaNumC2El.exit, label %19

19:                                               ; preds = %_ZN4absl7debian28AlphaNumC2EPKc.exit
  call void @llvm.trap()
  unreachable

_ZN4absl7debian28AlphaNumC2El.exit:               ; preds = %_ZN4absl7debian28AlphaNumC2EPKc.exit
  %20 = getelementptr inbounds nuw i8, ptr %6, i64 8
  store i64 %17, ptr %20, align 8
  call void @_ZN4absl7debian26StrCatB5cxx11ERKNS0_8AlphaNumES3_(ptr dead_on_unwind writable sret(%"class.std::__cxx11::basic_string") align 8 %0, ptr noundef nonnull align 8 dereferenceable(48) %5, ptr noundef nonnull align 8 dereferenceable(48) %6)
  br label %39

_ZN4absl7debian28AlphaNumC2EPKc.exit4:            ; preds = %4
  store ptr @.str.10, ptr %7, align 8
  %21 = getelementptr inbounds nuw i8, ptr %7, i64 8
  store i64 1, ptr %21, align 8
  %22 = getelementptr inbounds nuw i8, ptr %8, i64 16
  %23 = call noundef ptr @_ZN4absl7debian216numbers_internal15FastIntToBufferEiPc(i32 noundef %2, ptr noundef nonnull %22)
  %24 = ptrtoint ptr %23 to i64
  %25 = ptrtoint ptr %22 to i64
  %26 = sub i64 %24, %25
  store ptr %22, ptr %8, align 8
  %27 = icmp sgt i64 %26, -1
  br i1 %27, label %_ZN4absl7debian28AlphaNumC2Ei.exit, label %28

28:                                               ; preds = %_ZN4absl7debian28AlphaNumC2EPKc.exit4
  call void @llvm.trap()
  unreachable

_ZN4absl7debian28AlphaNumC2Ei.exit:               ; preds = %_ZN4absl7debian28AlphaNumC2EPKc.exit4
  %29 = getelementptr inbounds nuw i8, ptr %8, i64 8
  store i64 %26, ptr %29, align 8
  store ptr @.str.11, ptr %9, align 8
  %30 = getelementptr inbounds nuw i8, ptr %9, i64 8
  store i64 1, ptr %30, align 8
  %31 = getelementptr inbounds nuw i8, ptr %10, i64 16
  %32 = call noundef ptr @_ZN4absl7debian216numbers_internal15FastIntToBufferElPc(i64 noundef %3, ptr noundef nonnull %31)
  %33 = ptrtoint ptr %32 to i64
  %34 = ptrtoint ptr %31 to i64
  %35 = sub i64 %33, %34
  store ptr %31, ptr %10, align 8
  %36 = icmp sgt i64 %35, -1
  br i1 %36, label %_ZN4absl7debian28AlphaNumC2El.exit6, label %37

37:                                               ; preds = %_ZN4absl7debian28AlphaNumC2Ei.exit
  call void @llvm.trap()
  unreachable

_ZN4absl7debian28AlphaNumC2El.exit6:              ; preds = %_ZN4absl7debian28AlphaNumC2Ei.exit
  %38 = getelementptr inbounds nuw i8, ptr %10, i64 8
  store i64 %35, ptr %38, align 8
  call void @_ZN4absl7debian26StrCatB5cxx11ERKNS0_8AlphaNumES3_S3_S3_(ptr dead_on_unwind writable sret(%"class.std::__cxx11::basic_string") align 8 %0, ptr noundef nonnull align 8 dereferenceable(48) %7, ptr noundef nonnull align 8 dereferenceable(48) %8, ptr noundef nonnull align 8 dereferenceable(48) %9, ptr noundef nonnull align 8 dereferenceable(48) %10)
  br label %39

39:                                               ; preds = %_ZN4absl7debian28AlphaNumC2El.exit6, %_ZN4absl7debian28AlphaNumC2El.exit
  ret void
}